target datalayout = "e-m:e-p270:32:32-p271:32:32-p272:64:64-i64:64-i128:128-f80:128-n8:16:32:64-S128"
target triple = "x86_64-unknown-linux-gnu"

%"class.QuantLib::Currency" = type { %"class.boost::shared_ptr" }
%"class.boost::shared_ptr" = type { ptr, %"class.boost::detail::shared_count" }
%"class.boost::detail::shared_count" = type { ptr }

; Function Attrs: mustprogress uwtable
define void @_ZN8QuantLib8CurrencyC2ERKNSt7__cxx1112basic_stringIcSt11char_traitsIcESaIcEEES8_iS8_S8_iRKNS_8RoundingERKS0_RKSt3setIS6_St4lessIS6_ESaIS6_EE(ptr noundef nonnull align 8 dereferenceable(16) %this, ptr noundef nonnull align 8 dereferenceable(32) %name, ptr noundef nonnull align 8 dereferenceable(32) %code, i32 noundef %numericCode, ptr noundef nonnull align 8 dereferenceable(32) %symbol, ptr noundef nonnull align 8 dereferenceable(32) %fractionSymbol, i32 noundef %fractionsPerUnit, ptr noundef nonnull align 4 dereferenceable(12) %rounding, ptr noundef nonnull align 8 dereferenceable(16) %triangulationCurrency, ptr noundef nonnull align 8 dereferenceable(48) %minorUnitCodes) unnamed_addr #0 align 2 {
entry:
  %this.addr = alloca ptr, align 8
  %name.addr = alloca ptr, align 8
  %code.addr = alloca ptr, align 8
  %numericCode.addr = alloca i32, align 4
  %symbol.addr = alloca ptr, align 8
  %fractionSymbol.addr = alloca ptr, align 8
  %fractionsPerUnit.addr = alloca i32, align 4
  %rounding.addr = alloca ptr, align 8
  %triangulationCurrency.addr = alloca ptr, align 8
  %minorUnitCodes.addr = alloca ptr, align 8
  store ptr %this, ptr %this.addr, align 8, !tbaa !3
  store ptr %name, ptr %name.addr, align 8, !tbaa !3
  store ptr %code, ptr %code.addr, align 8, !tbaa !3
  store i32 %numericCode, ptr %numericCode.addr, align 4, !tbaa !9
  store ptr %symbol, ptr %symbol.addr, align 8, !tbaa !3
  store ptr %fractionSymbol, ptr %fractionSymbol.addr, align 8, !tbaa !3
  store i32 %fractionsPerUnit, ptr %fractionsPerUnit.addr, align 4, !tbaa !9
  store ptr %rounding, ptr %rounding.addr, align 8, !tbaa !3
  store ptr %triangulationCurrency, ptr %triangulationCurrency.addr, align 8, !tbaa !3
  store ptr %minorUnitCodes, ptr %minorUnitCodes.addr, align 8, !tbaa !3
  %this1 = load ptr, ptr %this.addr, align 8
  %data_ = getelementptr inbounds nuw %"class.QuantLib::Currency", ptr %this1, i32 0, i32 0
  %0 = load ptr, ptr %name.addr, align 8, !tbaa !3
  %1 = load ptr, ptr %code.addr, align 8, !tbaa !3
  %2 = load ptr, ptr %symbol.addr, align 8, !tbaa !3
  %3 = load ptr, ptr %fractionSymbol.addr, align 8, !tbaa !3
  %4 = load ptr, ptr %rounding.addr, align 8, !tbaa !3
  %5 = load ptr, ptr %triangulationCurrency.addr, align 8, !tbaa !3
  %6 = load ptr, ptr %minorUnitCodes.addr, align 8, !tbaa !3
  call void @_ZN5boost11make_sharedIN8QuantLib8Currency4DataEJRKNSt7__cxx1112basic_stringIcSt11char_traitsIcESaIcEEESB_RiSB_SB_SC_RKNS1_8RoundingERKS2_RKSt3setIS9_St4lessIS9_ESaIS9_EEEEENS_6detail15sp_if_not_arrayIT_E4typeEDpOT0_(ptr dead_on_unwind writable sret(%"class.boost::shared_ptr") align 8 %data_, ptr noundef nonnull align 8 dereferenceable(32) %0, ptr noundef nonnull align 8 dereferenceable(32) %1, ptr noundef nonnull align 4 dereferenceable(4) %numericCode.addr, ptr noundef nonnull align 8 dereferenceable(32) %2, ptr noundef nonnull align 8 dereferenceable(32) %3, ptr noundef nonnull align 4 dereferenceable(4) %fractionsPerUnit.addr, ptr noundef nonnull align 4 dereferenceable(12) %4, ptr noundef nonnull align 8 dereferenceable(16) %5, ptr noundef nonnull align 8 dereferenceable(48) %6)
  ret void
}