; Function Attrs: mustprogress uwtable
define void @_ZN8QuantLib8CurrencyC2ERKNSt7__cxx1112basic_stringIcSt11char_traitsIcESaIcEEES8_iS8_S8_iRKNS_8RoundingERKS0_RKSt3setIS6_St4lessIS6_ESaIS6_EE(ptr noundef nonnull align 8 dereferenceable(16) %this, ptr noundef nonnull align 8 dereferenceable(32) %name, ptr noundef nonnull align 8 dereferenceable(32) %code, i32 noundef %numericCode, ptr noundef nonnull align 8 dereferenceable(32) %symbol, ptr noundef nonnull align 8 dereferenceable(32) %fractionSymbol, i32 noundef %fractionsPerUnit, ptr noundef nonnull align 4 dereferenceable(12) %rounding, ptr noundef nonnull align 8 dereferenceable(16) %triangulationCurrency, ptr noundef nonnull align 8 dereferenceable(48) %minorUnitCodes) unnamed_addr #0 align 2 {
entry:
  %numericCode.addr = alloca i32, align 4
  %fractionsPerUnit.addr = alloca i32, align 4
  store i32 %numericCode, ptr %numericCode.addr, align 4, !tbaa !33
  store i32 %fractionsPerUnit, ptr %fractionsPerUnit.addr, align 4, !tbaa !33
  call void @_ZN5boost11make_sharedIN8QuantLib8Currency4DataEJRKNSt7__cxx1112basic_stringIcSt11char_traitsIcESaIcEEESB_RiSB_SB_SC_RKNS1_8RoundingERKS2_RKSt3setIS9_St4lessIS9_ESaIS9_EEEEENS_6detail15sp_if_not_arrayIT_E4typeEDpOT0_(ptr dead_on_unwind nonnull writable sret(%"class.boost::shared_ptr") align 8 %this, ptr noundef nonnull align 8 dereferenceable(32) %name, ptr noundef nonnull align 8 dereferenceable(32) %code, ptr noundef nonnull align 4 dereferenceable(4) %numericCode.addr, ptr noundef nonnull align 8 dereferenceable(32) %symbol, ptr noundef nonnull align 8 dereferenceable(32) %fractionSymbol, ptr noundef nonnull align 4 dereferenceable(4) %fractionsPerUnit.addr, ptr noundef nonnull align 4 dereferenceable(12) %rounding, ptr noundef nonnull align 8 dereferenceable(16) %triangulationCurrency, ptr noundef nonnull align 8 dereferenceable(48) %minorUnitCodes)
  ret void
}